target datalayout = "e-m:e-p270:32:32-p271:32:32-p272:64:64-i64:64-i128:128-f80:128-n8:16:32:64-S128"
target triple = "x86_64-pc-linux-gnu"

%struct.ma_allocation_callbacks = type { ptr, ptr, ptr, ptr }
%struct.ma_dr_wav = type { ptr, ptr, ptr, ptr, %struct.ma_allocation_callbacks, i32, %struct.ma_dr_wav_fmt, i32, i16, i16, i16, i64, i64, i64, i64, i64, i64, i32, ptr, i32, %struct.ma_dr_wav__memory_stream, %struct.ma_dr_wav__memory_stream_write, %struct.anon.52, %struct.anon.53, %struct.anon.54 }
%struct.ma_dr_wav_fmt = type { i16, i16, i32, i32, i16, i16, i16, i16, i32, [16 x i8] }
%struct.ma_dr_wav__memory_stream = type { ptr, i64, i64 }
%struct.ma_dr_wav__memory_stream_write = type { ptr, ptr, i64, i64, i64 }
%struct.anon.52 = type { i32, [2 x i16], [2 x i32], [4 x i32], i32, [2 x [2 x i32]] }
%struct.anon.53 = type { i32, [2 x i32], [2 x i32], [16 x i32], i32 }
%struct.anon.54 = type { i8, i8 }

; Function Attrs: alwaysinline nounwind uwtable
define internal i32 @ma_dr_wav__bswap32(i32 noundef %0) #7 {
  %2 = alloca i32, align 4
  store i32 %0, ptr %2, align 4, !tbaa !8
  %3 = load i32, ptr %2, align 4, !tbaa !8
  %4 = call i32 @llvm.bswap.i32(i32 %3)
  ret i32 %4
}

; Function Attrs: alwaysinline nounwind uwtable
define internal i32 @ma_dr_wav__bswap_s32(i32 noundef %0) #7 {
  %2 = alloca i32, align 4
  store i32 %0, ptr %2, align 4, !tbaa !8
  %3 = load i32, ptr %2, align 4, !tbaa !8
  %4 = call i32 @ma_dr_wav__bswap32(i32 noundef %3)
  ret i32 %4
}

; Function Attrs: alwaysinline nounwind uwtable
define internal void @ma_dr_wav__bswap_samples_s32(ptr noundef %0, i64 noundef %1) #7 {
  %3 = alloca ptr, align 8
  %4 = alloca i64, align 8
  %5 = alloca i64, align 8
  store ptr %0, ptr %3, align 8, !tbaa !3
  store i64 %1, ptr %4, align 8, !tbaa !47
  call void @llvm.lifetime.start.p0(i64 8, ptr %5) #16
  store i64 0, ptr %5, align 8, !tbaa !47
  br label %6

6:                                                ; preds = %19, %2
  %7 = load i64, ptr %5, align 8, !tbaa !47
  %8 = load i64, ptr %4, align 8, !tbaa !47
  %9 = icmp ult i64 %7, %8
  br i1 %9, label %10, label %22

10:                                               ; preds = %6
  %11 = load ptr, ptr %3, align 8, !tbaa !3
  %12 = load i64, ptr %5, align 8, !tbaa !47
  %13 = getelementptr inbounds nuw i32, ptr %11, i64 %12
  %14 = load i32, ptr %13, align 4, !tbaa !8
  %15 = call i32 @ma_dr_wav__bswap_s32(i32 noundef %14)
  %16 = load ptr, ptr %3, align 8, !tbaa !3
  %17 = load i64, ptr %5, align 8, !tbaa !47
  %18 = getelementptr inbounds nuw i32, ptr %16, i64 %17
  store i32 %15, ptr %18, align 4, !tbaa !8
  br label %19

19:                                               ; preds = %10
  %20 = load i64, ptr %5, align 8, !tbaa !47
  %21 = add i64 %20, 1
  store i64 %21, ptr %5, align 8, !tbaa !47
  br label %6, !llvm.loop !1591

22:                                               ; preds = %6
  call void @llvm.lifetime.end.p0(i64 8, ptr %5) #16
  ret void
}

; Function Attrs: alwaysinline nounwind uwtable
define internal i32 @ma_dr_wav__is_little_endian() #7 {
  ret i32 1
}

; Function Attrs: nounwind uwtable
define i64 @ma_dr_wav_read_pcm_frames_s32be(ptr noundef %0, i64 noundef %1, ptr noundef %2) #0 {
  %4 = alloca ptr, align 8
  %5 = alloca i64, align 8
  %6 = alloca ptr, align 8
  %7 = alloca i64, align 8
  store ptr %0, ptr %4, align 8, !tbaa !25
  store i64 %1, ptr %5, align 8, !tbaa !47
  store ptr %2, ptr %6, align 8, !tbaa !3
  call void @llvm.lifetime.start.p0(i64 8, ptr %7) #16
  %8 = load ptr, ptr %4, align 8, !tbaa !25
  %9 = load i64, ptr %5, align 8, !tbaa !47
  %10 = load ptr, ptr %6, align 8, !tbaa !3
  %11 = call i64 @ma_dr_wav_read_pcm_frames_s32(ptr noundef %8, i64 noundef %9, ptr noundef %10)
  store i64 %11, ptr %7, align 8, !tbaa !47
  %12 = load ptr, ptr %6, align 8, !tbaa !3
  %13 = icmp ne ptr %12, null
  br i1 %13, label %14, label %25

14:                                               ; preds = %3
  %15 = call i32 @ma_dr_wav__is_little_endian()
  %16 = icmp eq i32 %15, 1
  br i1 %16, label %17, label %25

17:                                               ; preds = %14
  %18 = load ptr, ptr %6, align 8, !tbaa !3
  %19 = load i64, ptr %7, align 8, !tbaa !47
  %20 = load ptr, ptr %4, align 8, !tbaa !25
  %21 = getelementptr inbounds nuw %struct.ma_dr_wav, ptr %20, i32 0, i32 8
  %22 = load i16, ptr %21, align 8, !tbaa !965
  %23 = zext i16 %22 to i64
  %24 = mul i64 %19, %23
  call void @ma_dr_wav__bswap_samples_s32(ptr noundef %18, i64 noundef %24)
  br label %25

25:                                               ; preds = %17, %14, %3
  %26 = load i64, ptr %7, align 8, !tbaa !47
  call void @llvm.lifetime.end.p0(i64 8, ptr %7) #16
  ret i64 %26
}