; Function Attrs: nounwind uwtable
define i64 @ma_dr_wav_read_pcm_frames_s32be(ptr noundef captures(address_is_null) %0, i64 noundef %1, ptr noundef %2) local_unnamed_addr #7 {
  %4 = tail call i64 @ma_dr_wav_read_pcm_frames_s32(ptr noundef %0, i64 noundef %1, ptr noundef %2)
  %.not = icmp eq ptr %2, null
  br i1 %.not, label %ma_dr_wav__bswap_samples_s32.exit, label %5

5:                                                ; preds = %3
  %6 = getelementptr inbounds nuw i8, ptr %0, i64 112
  %7 = load i16, ptr %6, align 8, !tbaa !1159
  %8 = zext i16 %7 to i64
  %9 = mul i64 %4, %8
  %.not8 = icmp eq i64 %9, 0
  br i1 %.not8, label %ma_dr_wav__bswap_samples_s32.exit, label %.lr.ph

.lr.ph:                                           ; preds = %5, %.lr.ph
  %.0.i7 = phi i64 [ %13, %.lr.ph ], [ 0, %5 ]
  %10 = getelementptr inbounds nuw i32, ptr %2, i64 %.0.i7
  %11 = load i32, ptr %10, align 4, !tbaa !3
  %12 = tail call i32 @llvm.bswap.i32(i32 %11)
  store i32 %12, ptr %10, align 4, !tbaa !3
  %13 = add nuw i64 %.0.i7, 1
  %exitcond.not = icmp eq i64 %13, %9
  br i1 %exitcond.not, label %ma_dr_wav__bswap_samples_s32.exit, label %.lr.ph, !llvm.loop !1891

ma_dr_wav__bswap_samples_s32.exit:                ; preds = %.lr.ph, %5, %3
  ret i64 %4
}